; Function Attrs: mustprogress nounwind uwtable
define hidden void @_ZNK14PhaseIdealLoop3rpoEP4NodeR10Node_StackR9VectorSetR9Node_List(ptr nocapture noundef nonnull readnone align 8 dereferenceable(237) %0, ptr noundef %1, ptr noundef nonnull align 8 dereferenceable(32) %2, ptr noundef nonnull align 8 dereferenceable(32) %3, ptr noundef nonnull align 8 dereferenceable(28) %4) local_unnamed_addr #0 align 2 {
  %6 = load ptr, ptr %2, align 8
  %7 = getelementptr inbounds i8, ptr %6, i64 16
  store ptr %7, ptr %2, align 8
  %8 = getelementptr inbounds i8, ptr %2, i64 8
  %9 = load ptr, ptr %8, align 8
  %.not.i = icmp ult ptr %7, %9
  br i1 %.not.i, label %_ZN10Node_Stack4pushEP4Nodej.exit, label %10

10:                                               ; preds = %5
  tail call void @_ZN10Node_Stack4growEv(ptr noundef nonnull align 8 dereferenceable(32) %2) #15
  %.pre.i = load ptr, ptr %2, align 8
  br label %_ZN10Node_Stack4pushEP4Nodej.exit

_ZN10Node_Stack4pushEP4Nodej.exit:                ; preds = %5, %10
  %11 = phi ptr [ %.pre.i, %10 ], [ %7, %5 ]
  store ptr %1, ptr %11, align 8
  %12 = getelementptr inbounds i8, ptr %11, i64 8
  store i32 0, ptr %12, align 8
  %13 = getelementptr inbounds i8, ptr %1, i64 40
  %14 = load i32, ptr %13, align 8
  %15 = lshr i32 %14, 5
  %16 = load i32, ptr %3, align 8
  %.not.i20 = icmp ult i32 %15, %16
  br i1 %.not.i20, label %_ZN9VectorSet3setEj.exit, label %17

17:                                               ; preds = %_ZN10Node_Stack4pushEP4Nodej.exit
  tail call void @_ZN9VectorSet4growEj(ptr noundef nonnull align 8 dereferenceable(32) %3, i32 noundef %15) #15
  br label %_ZN9VectorSet3setEj.exit

_ZN9VectorSet3setEj.exit:                         ; preds = %_ZN10Node_Stack4pushEP4Nodej.exit, %17
  %18 = and i32 %14, 31
  %19 = shl nuw i32 1, %18
  %20 = getelementptr inbounds i8, ptr %3, i64 8
  %21 = load ptr, ptr %20, align 8
  %22 = zext nneg i32 %15 to i64
  %23 = getelementptr inbounds i32, ptr %21, i64 %22
  %24 = load i32, ptr %23, align 4
  %25 = or i32 %24, %19
  store i32 %25, ptr %23, align 4
  %26 = getelementptr inbounds i8, ptr %2, i64 16
  %27 = load ptr, ptr %2, align 8
  %28 = load ptr, ptr %26, align 8
  %.not26 = icmp ult ptr %27, %28
  br i1 %.not26, label %._crit_edge, label %.lr.ph

.lr.ph:                                           ; preds = %_ZN9VectorSet3setEj.exit
  %29 = getelementptr inbounds i8, ptr %4, i64 24
  %30 = getelementptr inbounds i8, ptr %4, i64 8
  %31 = getelementptr inbounds i8, ptr %4, i64 16
  br label %32

32:                                               ; preds = %.lr.ph, %82
  %33 = phi ptr [ %27, %.lr.ph ], [ %83, %82 ]
  %34 = load ptr, ptr %33, align 8
  %35 = getelementptr inbounds i8, ptr %33, i64 8
  %36 = load i32, ptr %35, align 8
  %37 = getelementptr inbounds i8, ptr %34, i64 32
  %38 = load i32, ptr %37, align 8
  %39 = icmp ult i32 %36, %38
  br i1 %39, label %40, label %72

40:                                               ; preds = %32
  %41 = add nuw i32 %36, 1
  store i32 %41, ptr %35, align 8
  %42 = getelementptr inbounds i8, ptr %34, i64 16
  %43 = load ptr, ptr %42, align 8
  %44 = zext i32 %36 to i64
  %45 = getelementptr inbounds ptr, ptr %43, i64 %44
  %46 = load ptr, ptr %45, align 8
  %47 = load ptr, ptr %46, align 8
  %48 = getelementptr inbounds i8, ptr %47, i64 16
  %49 = load ptr, ptr %48, align 8
  %50 = tail call noundef zeroext i1 %49(ptr noundef nonnull align 8 dereferenceable(52) %46) #15
  br i1 %50, label %51, label %82

51:                                               ; preds = %40
  %52 = getelementptr inbounds i8, ptr %46, i64 40
  %53 = load i32, ptr %52, align 8
  %54 = lshr i32 %53, 5
  %55 = load i32, ptr %3, align 8
  %.not.i21 = icmp ult i32 %54, %55
  br i1 %.not.i21, label %_ZN9VectorSet8test_setEj.exit, label %56

56:                                               ; preds = %51
  tail call void @_ZN9VectorSet4growEj(ptr noundef nonnull align 8 dereferenceable(32) %3, i32 noundef %54) #15
  br label %_ZN9VectorSet8test_setEj.exit

_ZN9VectorSet8test_setEj.exit:                    ; preds = %51, %56
  %57 = and i32 %53, 31
  %58 = shl nuw i32 1, %57
  %59 = load ptr, ptr %20, align 8
  %60 = zext nneg i32 %54 to i64
  %61 = getelementptr inbounds i32, ptr %59, i64 %60
  %62 = load i32, ptr %61, align 4
  %63 = or i32 %62, %58
  store i32 %63, ptr %61, align 4
  %64 = and i32 %62, %58
  %.not25 = icmp eq i32 %64, 0
  br i1 %.not25, label %65, label %82

65:                                               ; preds = %_ZN9VectorSet8test_setEj.exit
  %66 = load ptr, ptr %2, align 8
  %67 = getelementptr inbounds i8, ptr %66, i64 16
  store ptr %67, ptr %2, align 8
  %68 = load ptr, ptr %8, align 8
  %.not.i22 = icmp ult ptr %67, %68
  br i1 %.not.i22, label %_ZN10Node_Stack4pushEP4Nodej.exit24, label %69

69:                                               ; preds = %65
  tail call void @_ZN10Node_Stack4growEv(ptr noundef nonnull align 8 dereferenceable(32) %2) #15
  %.pre.i23 = load ptr, ptr %2, align 8
  br label %_ZN10Node_Stack4pushEP4Nodej.exit24

_ZN10Node_Stack4pushEP4Nodej.exit24:              ; preds = %65, %69
  %70 = phi ptr [ %.pre.i23, %69 ], [ %67, %65 ]
  store ptr %46, ptr %70, align 8
  %71 = getelementptr inbounds i8, ptr %70, i64 8
  store i32 0, ptr %71, align 8
  br label %82

72:                                               ; preds = %32
  %73 = load i32, ptr %29, align 8
  %74 = add i32 %73, 1
  store i32 %74, ptr %29, align 8
  %75 = load i32, ptr %30, align 8
  %.not.i.i = icmp ugt i32 %75, %73
  br i1 %.not.i.i, label %_ZN9Node_List4pushEP4Node.exit, label %76

76:                                               ; preds = %72
  tail call void @_ZN10Node_Array4growEj(ptr noundef nonnull align 8 dereferenceable(24) %4, i32 noundef %73) #15
  br label %_ZN9Node_List4pushEP4Node.exit

_ZN9Node_List4pushEP4Node.exit:                   ; preds = %72, %76
  %77 = load ptr, ptr %31, align 8
  %78 = zext i32 %73 to i64
  %79 = getelementptr inbounds ptr, ptr %77, i64 %78
  store ptr %34, ptr %79, align 8
  %80 = load ptr, ptr %2, align 8
  %81 = getelementptr inbounds i8, ptr %80, i64 -16
  store ptr %81, ptr %2, align 8
  br label %82

82:                                               ; preds = %40, %_ZN9VectorSet8test_setEj.exit, %_ZN10Node_Stack4pushEP4Nodej.exit24, %_ZN9Node_List4pushEP4Node.exit
  %83 = load ptr, ptr %2, align 8
  %84 = load ptr, ptr %26, align 8
  %.not = icmp ult ptr %83, %84
  br i1 %.not, label %._crit_edge, label %32, !llvm.loop !138

._crit_edge:                                      ; preds = %82, %_ZN9VectorSet3setEj.exit
  ret void
}